target datalayout = "e-m:e-p270:32:32-p271:32:32-p272:64:64-i64:64-i128:128-f80:128-n8:16:32:64-S128"
target triple = "x86_64-pc-linux-gnu"

%"struct.duckdb::LogicalType" = type { i8, i8, %"class.duckdb::shared_ptr" }
%"class.duckdb::shared_ptr" = type { %"class.std::shared_ptr" }
%"class.std::shared_ptr" = type { %"class.std::__shared_ptr" }
%"class.std::__shared_ptr" = type { ptr, %"class.std::__shared_count" }
%"class.std::__shared_count" = type { ptr }
%"class.duckdb::vector.24" = type { %"class.std::vector.25" }
%"class.std::vector.25" = type { %"struct.std::_Vector_base.26" }
%"struct.std::_Vector_base.26" = type { %"struct.std::_Vector_base<duckdb::LogicalType, std::allocator<duckdb::LogicalType>>::_Vector_impl" }
%"struct.std::_Vector_base<duckdb::LogicalType, std::allocator<duckdb::LogicalType>>::_Vector_impl" = type { %"struct.std::_Vector_base<duckdb::LogicalType, std::allocator<duckdb::LogicalType>>::_Vector_impl_data" }
%"struct.std::_Vector_base<duckdb::LogicalType, std::allocator<duckdb::LogicalType>>::_Vector_impl_data" = type { ptr, ptr, ptr }
%"class.duckdb::Value" = type { %"struct.duckdb::LogicalType", i8, %"union.duckdb::Value::Val", %"class.duckdb::shared_ptr.54" }
%"union.duckdb::Value::Val" = type { %"struct.duckdb::hugeint_t" }
%"struct.duckdb::hugeint_t" = type { i64, i64 }
%"class.duckdb::shared_ptr.54" = type { %"class.std::shared_ptr.55" }
%"class.std::shared_ptr.55" = type { %"class.std::__shared_ptr.56" }
%"class.std::__shared_ptr.56" = type { ptr, %"class.std::__shared_count" }

; Function Attrs: mustprogress uwtable
define internal void @_ZN6duckdbL17EnumFirstFunctionERNS_9DataChunkERNS_15ExpressionStateERNS_6VectorE(ptr noundef nonnull align 8 dereferenceable(64) %0, ptr noundef nonnull align 8 dereferenceable(176) %1, ptr noundef nonnull align 8 dereferenceable(104) %2) #0 personality ptr @__gxx_personality_v0 {
  %4 = alloca ptr, align 8
  %5 = alloca ptr, align 8
  %6 = alloca ptr, align 8
  %7 = alloca %"class.duckdb::vector.24", align 8
  %8 = alloca ptr, align 8
  %9 = alloca ptr, align 8
  %10 = alloca i32, align 4
  %11 = alloca %"class.duckdb::Value", align 8
  store ptr %0, ptr %4, align 8, !tbaa !66
  store ptr %1, ptr %5, align 8, !tbaa !68
  store ptr %2, ptr %6, align 8, !tbaa !70
  call void @llvm.lifetime.start.p0(i64 24, ptr %7) #17
  %12 = load ptr, ptr %4, align 8, !tbaa !66
  call void @_ZNK6duckdb9DataChunk8GetTypesEv(ptr dead_on_unwind writable sret(%"class.duckdb::vector.24") align 8 %7, ptr noundef nonnull align 8 dereferenceable(64) %12)
  call void @llvm.lifetime.start.p0(i64 8, ptr %8) #17
  %13 = invoke noundef nonnull align 8 dereferenceable(24) ptr @_ZN6duckdb6vectorINS_11LogicalTypeELb1EEixEm(ptr noundef nonnull align 8 dereferenceable(24) %7, i64 noundef 0)
          to label %14 unwind label %21

14:                                               ; preds = %3
  %15 = invoke noundef nonnull align 8 dereferenceable(104) ptr @_ZN6duckdb8EnumType20GetValuesInsertOrderERKNS_11LogicalTypeE(ptr noundef nonnull align 8 dereferenceable(24) %13)
          to label %16 unwind label %21

16:                                               ; preds = %14
  store ptr %15, ptr %8, align 8, !tbaa !70
  call void @llvm.lifetime.start.p0(i64 64, ptr %11) #17
  %17 = load ptr, ptr %8, align 8, !tbaa !70
  invoke void @_ZNK6duckdb6Vector8GetValueEm(ptr dead_on_unwind writable sret(%"class.duckdb::Value") align 8 %11, ptr noundef nonnull align 8 dereferenceable(104) %17, i64 noundef 0)
          to label %18 unwind label %25

18:                                               ; preds = %16
  %19 = load ptr, ptr %6, align 8, !tbaa !70
  invoke void @_ZN6duckdb6Vector9ReferenceERKNS_5ValueE(ptr noundef nonnull align 8 dereferenceable(104) %19, ptr noundef nonnull align 8 dereferenceable(64) %11)
          to label %20 unwind label %29

20:                                               ; preds = %18
  call void @_ZN6duckdb5ValueD1Ev(ptr noundef nonnull align 8 dereferenceable(64) %11) #17
  call void @llvm.lifetime.end.p0(i64 64, ptr %11) #17
  call void @llvm.lifetime.end.p0(i64 8, ptr %8) #17
  call void @_ZNSt6vectorIN6duckdb11LogicalTypeESaIS1_EED2Ev(ptr noundef nonnull align 8 dereferenceable(24) %7) #17
  call void @llvm.lifetime.end.p0(i64 24, ptr %7) #17
  ret void

21:                                               ; preds = %14, %3
  %22 = landingpad { ptr, i32 }
          cleanup
  %23 = extractvalue { ptr, i32 } %22, 0
  store ptr %23, ptr %9, align 8
  %24 = extractvalue { ptr, i32 } %22, 1
  store i32 %24, ptr %10, align 4
  br label %34

25:                                               ; preds = %16
  %26 = landingpad { ptr, i32 }
          cleanup
  %27 = extractvalue { ptr, i32 } %26, 0
  store ptr %27, ptr %9, align 8
  %28 = extractvalue { ptr, i32 } %26, 1
  store i32 %28, ptr %10, align 4
  br label %33

29:                                               ; preds = %18
  %30 = landingpad { ptr, i32 }
          cleanup
  %31 = extractvalue { ptr, i32 } %30, 0
  store ptr %31, ptr %9, align 8
  %32 = extractvalue { ptr, i32 } %30, 1
  store i32 %32, ptr %10, align 4
  call void @_ZN6duckdb5ValueD1Ev(ptr noundef nonnull align 8 dereferenceable(64) %11) #17
  br label %33

33:                                               ; preds = %29, %25
  call void @llvm.lifetime.end.p0(i64 64, ptr %11) #17
  br label %34

34:                                               ; preds = %33, %21
  call void @llvm.lifetime.end.p0(i64 8, ptr %8) #17
  call void @_ZNSt6vectorIN6duckdb11LogicalTypeESaIS1_EED2Ev(ptr noundef nonnull align 8 dereferenceable(24) %7) #17
  call void @llvm.lifetime.end.p0(i64 24, ptr %7) #17
  br label %35

35:                                               ; preds = %34
  %36 = load ptr, ptr %9, align 8
  %37 = load i32, ptr %10, align 4
  %38 = insertvalue { ptr, i32 } poison, ptr %36, 0
  %39 = insertvalue { ptr, i32 } %38, i32 %37, 1
  resume { ptr, i32 } %39
}