; Function Attrs: mustprogress uwtable
define internal void @_ZN6duckdbL17EnumFirstFunctionERNS_9DataChunkERNS_15ExpressionStateERNS_6VectorE(ptr noundef nonnull align 8 dereferenceable(64) %0, ptr nonnull readnone align 8 captures(none) %1, ptr noundef nonnull align 8 dereferenceable(104) %2) #0 personality ptr @__gxx_personality_v0 {
  %4 = alloca %"class.duckdb::vector.24", align 8
  %5 = alloca %"class.duckdb::Value", align 8
  call void @llvm.lifetime.start.p0(i64 24, ptr nonnull %4) #16
  call void @_ZNK6duckdb9DataChunk8GetTypesEv(ptr dead_on_unwind nonnull writable sret(%"class.duckdb::vector.24") align 8 %4, ptr noundef nonnull align 8 dereferenceable(64) %0)
  %6 = invoke noundef nonnull align 8 dereferenceable(24) ptr @_ZN6duckdb6vectorINS_11LogicalTypeELb1EEixEm(ptr noundef nonnull align 8 dereferenceable(24) %4, i64 noundef 0)
          to label %7 unwind label %18

7:                                                ; preds = %3
  %8 = invoke noundef nonnull align 8 dereferenceable(104) ptr @_ZN6duckdb8EnumType20GetValuesInsertOrderERKNS_11LogicalTypeE(ptr noundef nonnull align 8 dereferenceable(24) %6)
          to label %9 unwind label %18

9:                                                ; preds = %7
  call void @llvm.lifetime.start.p0(i64 64, ptr nonnull %5) #16
  invoke void @_ZNK6duckdb6Vector8GetValueEm(ptr dead_on_unwind nonnull writable sret(%"class.duckdb::Value") align 8 %5, ptr noundef nonnull align 8 dereferenceable(104) %8, i64 noundef 0)
          to label %10 unwind label %20

10:                                               ; preds = %9
  invoke void @_ZN6duckdb6Vector9ReferenceERKNS_5ValueE(ptr noundef nonnull align 8 dereferenceable(104) %2, ptr noundef nonnull align 8 dereferenceable(64) %5)
          to label %11 unwind label %22

11:                                               ; preds = %10
  call void @_ZN6duckdb5ValueD1Ev(ptr noundef nonnull align 8 dereferenceable(64) %5) #16
  call void @llvm.lifetime.end.p0(i64 64, ptr nonnull %5) #16
  %12 = load ptr, ptr %4, align 8, !tbaa !39
  %13 = getelementptr inbounds nuw i8, ptr %4, i64 8
  %14 = load ptr, ptr %13, align 8, !tbaa !43
  %.not4.i.i.i.i = icmp eq ptr %12, %14
  br i1 %.not4.i.i.i.i, label %_ZSt8_DestroyIPN6duckdb11LogicalTypeES1_EvT_S3_RSaIT0_E.exit.i, label %.lr.ph.i.i.i.i

.lr.ph.i.i.i.i:                                   ; preds = %11, %.lr.ph.i.i.i.i
  %.05.i.i.i.i = phi ptr [ %15, %.lr.ph.i.i.i.i ], [ %12, %11 ]
  call void @_ZN6duckdb11LogicalTypeD1Ev(ptr noundef nonnull align 8 dereferenceable(24) %.05.i.i.i.i) #16
  %15 = getelementptr inbounds nuw i8, ptr %.05.i.i.i.i, i64 24
  %.not.i.i.i.i = icmp eq ptr %15, %14
  br i1 %.not.i.i.i.i, label %_ZSt8_DestroyIPN6duckdb11LogicalTypeES1_EvT_S3_RSaIT0_E.exitthread-pre-split.i, label %.lr.ph.i.i.i.i, !llvm.loop !49

_ZSt8_DestroyIPN6duckdb11LogicalTypeES1_EvT_S3_RSaIT0_E.exitthread-pre-split.i: ; preds = %.lr.ph.i.i.i.i
  %.pr.i = load ptr, ptr %4, align 8, !tbaa !39
  br label %_ZSt8_DestroyIPN6duckdb11LogicalTypeES1_EvT_S3_RSaIT0_E.exit.i

_ZSt8_DestroyIPN6duckdb11LogicalTypeES1_EvT_S3_RSaIT0_E.exit.i: ; preds = %_ZSt8_DestroyIPN6duckdb11LogicalTypeES1_EvT_S3_RSaIT0_E.exitthread-pre-split.i, %11
  %16 = phi ptr [ %.pr.i, %_ZSt8_DestroyIPN6duckdb11LogicalTypeES1_EvT_S3_RSaIT0_E.exitthread-pre-split.i ], [ %12, %11 ]
  %.not.i.i.i = icmp eq ptr %16, null
  br i1 %.not.i.i.i, label %_ZNSt6vectorIN6duckdb11LogicalTypeESaIS1_EED2Ev.exit, label %17

17:                                               ; preds = %_ZSt8_DestroyIPN6duckdb11LogicalTypeES1_EvT_S3_RSaIT0_E.exit.i
  call void @_ZdlPv(ptr noundef nonnull %16) #18
  br label %_ZNSt6vectorIN6duckdb11LogicalTypeESaIS1_EED2Ev.exit

_ZNSt6vectorIN6duckdb11LogicalTypeESaIS1_EED2Ev.exit: ; preds = %_ZSt8_DestroyIPN6duckdb11LogicalTypeES1_EvT_S3_RSaIT0_E.exit.i, %17
  call void @llvm.lifetime.end.p0(i64 24, ptr nonnull %4) #16
  ret void

18:                                               ; preds = %7, %3
  %19 = landingpad { ptr, i32 }
          cleanup
  br label %25

20:                                               ; preds = %9
  %21 = landingpad { ptr, i32 }
          cleanup
  br label %24

22:                                               ; preds = %10
  %23 = landingpad { ptr, i32 }
          cleanup
  call void @_ZN6duckdb5ValueD1Ev(ptr noundef nonnull align 8 dereferenceable(64) %5) #16
  br label %24

24:                                               ; preds = %22, %20
  %.pn = phi { ptr, i32 } [ %23, %22 ], [ %21, %20 ]
  call void @llvm.lifetime.end.p0(i64 64, ptr nonnull %5) #16
  br label %25

25:                                               ; preds = %24, %18
  %.pn.pn = phi { ptr, i32 } [ %.pn, %24 ], [ %19, %18 ]
  call void @_ZNSt6vectorIN6duckdb11LogicalTypeESaIS1_EED2Ev(ptr noundef nonnull align 8 dereferenceable(24) %4) #16
  call void @llvm.lifetime.end.p0(i64 24, ptr nonnull %4) #16
  resume { ptr, i32 } %.pn.pn
}